target datalayout = "e-m:e-p270:32:32-p271:32:32-p272:64:64-i64:64-i128:128-f80:128-n8:16:32:64-S128"
target triple = "x86_64-pc-linux-gnu"

%struct.decode_as_s = type { ptr, ptr, i32, i32, ptr, ptr, ptr, ptr, ptr, ptr, ptr }

@proto_register_atm.ett = internal global [10 x ptr] [ptr @ett_atm, ptr @ett_ilmi, ptr @ett_aal1, ptr @ett_aal3_4, ptr @ett_oamaal, ptr @ett_atm_lane, ptr @ett_atm_lane_lc_lan_dest, ptr @ett_atm_lane_lc_lan_dest_rd, ptr @ett_atm_lane_lc_flags, ptr @ett_atm_lane_lc_tlv], align 16
@proto_register_atm.atm_da = internal global %struct.decode_as_s { ptr @.str.144, ptr @.str.145, i32 1, i32 0, ptr @proto_register_atm.atm_da_values, ptr null, ptr null, ptr @decode_as_default_populate_list, ptr @decode_as_default_reset, ptr @decode_as_default_change, ptr null }, align 8
@.str.144 = private unnamed_addr constant [4 x i8] c"atm\00", align 1
@.str.145 = private unnamed_addr constant [14 x i8] c"atm.aal2.type\00", align 1
@.str.146 = private unnamed_addr constant [27 x i8] c"Asynchronous Transfer Mode\00", align 1
@.str.147 = private unnamed_addr constant [4 x i8] c"ATM\00", align 1
@proto_atm = internal global i32 0, align 4
@.str.148 = private unnamed_addr constant [9 x i8] c"ATM AAL1\00", align 1
@.str.149 = private unnamed_addr constant [5 x i8] c"AAL1\00", align 1
@.str.150 = private unnamed_addr constant [5 x i8] c"aal1\00", align 1
@proto_aal1 = internal global i32 0, align 4
@.str.151 = private unnamed_addr constant [11 x i8] c"ATM AAL3/4\00", align 1
@.str.152 = private unnamed_addr constant [7 x i8] c"AAL3/4\00", align 1
@.str.153 = private unnamed_addr constant [7 x i8] c"aal3_4\00", align 1
@proto_aal3_4 = internal global i32 0, align 4
@.str.154 = private unnamed_addr constant [12 x i8] c"ATM OAM AAL\00", align 1
@.str.155 = private unnamed_addr constant [8 x i8] c"OAM AAL\00", align 1
@.str.156 = private unnamed_addr constant [7 x i8] c"oamaal\00", align 1
@proto_oamaal = internal global i32 0, align 4
@.str.157 = private unnamed_addr constant [5 x i8] c"ILMI\00", align 1
@.str.158 = private unnamed_addr constant [5 x i8] c"ilmi\00", align 1
@proto_ilmi = internal global i32 0, align 4
@.str.159 = private unnamed_addr constant [18 x i8] c"ATM LAN Emulation\00", align 1
@.str.160 = private unnamed_addr constant [9 x i8] c"ATM LANE\00", align 1
@.str.161 = private unnamed_addr constant [5 x i8] c"lane\00", align 1
@proto_atm_lane = internal global i32 0, align 4
@.str.162 = private unnamed_addr constant [15 x i8] c"ATM AAL_2 type\00", align 1
@atm_type_aal2_table = internal global ptr null, align 8
@.str.163 = private unnamed_addr constant [14 x i8] c"atm.aal5.type\00", align 1
@.str.164 = private unnamed_addr constant [15 x i8] c"ATM AAL_5 type\00", align 1
@atm_type_aal5_table = internal global ptr null, align 8
@.str.165 = private unnamed_addr constant [25 x i8] c"atm.cell_payload.vpi_vci\00", align 1
@.str.166 = private unnamed_addr constant [25 x i8] c"ATM Cell Payload VPI VCI\00", align 1
@atm_cell_payload_vpi_vci_table = internal global ptr null, align 8
@.str.167 = private unnamed_addr constant [24 x i8] c"atm.reassembled.vpi_vci\00", align 1
@.str.168 = private unnamed_addr constant [24 x i8] c"ATM Reassembled VPI VCI\00", align 1
@atm_reassembled_vpi_vci_table = internal global ptr null, align 8
@.str.169 = private unnamed_addr constant [10 x i8] c"ATM AAL_5\00", align 1
@.str.170 = private unnamed_addr constant [9 x i8] c"atm_lane\00", align 1
@.str.171 = private unnamed_addr constant [14 x i8] c"atm_truncated\00", align 1
@atm_handle = internal global ptr null, align 8
@.str.172 = private unnamed_addr constant [17 x i8] c"atm_pw_truncated\00", align 1
@.str.173 = private unnamed_addr constant [16 x i8] c"atm_untruncated\00", align 1
@atm_untruncated_handle = internal global ptr null, align 8
@.str.174 = private unnamed_addr constant [19 x i8] c"atm_pw_untruncated\00", align 1
@.str.175 = private unnamed_addr constant [13 x i8] c"atm_oam_cell\00", align 1
@.str.176 = private unnamed_addr constant [16 x i8] c"atm_pw_oam_cell\00", align 1
@.str.177 = private unnamed_addr constant [22 x i8] c"dissect_lane_as_sscop\00", align 1
@.str.178 = private unnamed_addr constant [22 x i8] c"Dissect LANE as SSCOP\00", align 1
@.str.179 = private unnamed_addr constant [75 x i8] c"Autodetection between LANE and SSCOP is hard. As default LANE is preferred\00", align 1
@dissect_lanesscop = internal global i8 0, align 1
@.str.180 = private unnamed_addr constant [18 x i8] c"unknown_aal2_type\00", align 1

; Function Attrs: null_pointer_is_valid sspstrong uwtable
define hidden void @proto_register_atm() #1 {
  %1 = alloca ptr, align 8
  %2 = alloca ptr, align 8
  call void @llvm.lifetime.start.p0(i64 8, ptr %1) #9
  call void @llvm.lifetime.start.p0(i64 8, ptr %2) #9
  %3 = call i32 @proto_register_protocol(ptr noundef @.str.146, ptr noundef @.str.147, ptr noundef @.str.144)
  store i32 %3, ptr @proto_atm, align 4
  %4 = call i32 @proto_register_protocol(ptr noundef @.str.148, ptr noundef @.str.149, ptr noundef @.str.150)
  store i32 %4, ptr @proto_aal1, align 4
  %5 = call i32 @proto_register_protocol(ptr noundef @.str.151, ptr noundef @.str.152, ptr noundef @.str.153)
  store i32 %5, ptr @proto_aal3_4, align 4
  %6 = call i32 @proto_register_protocol(ptr noundef @.str.154, ptr noundef @.str.155, ptr noundef @.str.156)
  store i32 %6, ptr @proto_oamaal, align 4
  %7 = load i32, ptr @proto_atm, align 4
  call void @proto_register_field_array(i32 noundef %7, ptr noundef @proto_register_atm.hf, i32 noundef 71)
  call void @proto_register_subtree_array(ptr noundef @proto_register_atm.ett, i32 noundef 10)
  %8 = load i32, ptr @proto_atm, align 4
  %9 = call ptr @expert_register_protocol(i32 noundef %8)
  store ptr %9, ptr %1, align 8
  %10 = load ptr, ptr %1, align 8
  call void @expert_register_field_array(ptr noundef %10, ptr noundef @proto_register_atm.ei, i32 noundef 1)
  %11 = call i32 @proto_register_protocol(ptr noundef @.str.157, ptr noundef @.str.157, ptr noundef @.str.158)
  store i32 %11, ptr @proto_ilmi, align 4
  %12 = call i32 @proto_register_protocol(ptr noundef @.str.159, ptr noundef @.str.160, ptr noundef @.str.161)
  store i32 %12, ptr @proto_atm_lane, align 4
  %13 = load i32, ptr @proto_atm, align 4
  %14 = call ptr @register_dissector_table(ptr noundef @.str.145, ptr noundef @.str.162, i32 noundef %13, i32 noundef 7, i32 noundef 1)
  store ptr %14, ptr @atm_type_aal2_table, align 8
  %15 = load i32, ptr @proto_atm, align 4
  %16 = call ptr @register_dissector_table(ptr noundef @.str.163, ptr noundef @.str.164, i32 noundef %15, i32 noundef 7, i32 noundef 1)
  store ptr %16, ptr @atm_type_aal5_table, align 8
  %17 = load i32, ptr @proto_atm, align 4
  %18 = call ptr @register_dissector_table(ptr noundef @.str.165, ptr noundef @.str.166, i32 noundef %17, i32 noundef 7, i32 noundef 1)
  store ptr %18, ptr @atm_cell_payload_vpi_vci_table, align 8
  %19 = load i32, ptr @proto_atm, align 4
  %20 = call ptr @register_dissector_table(ptr noundef @.str.167, ptr noundef @.str.168, i32 noundef %19, i32 noundef 7, i32 noundef 1)
  store ptr %20, ptr @atm_reassembled_vpi_vci_table, align 8
  call void @register_capture_dissector_table(ptr noundef @.str.163, ptr noundef @.str.169)
  call void @register_capture_dissector_table(ptr noundef @.str.170, ptr noundef @.str.159)
  %21 = load i32, ptr @proto_atm, align 4
  %22 = call ptr @register_dissector(ptr noundef @.str.171, ptr noundef @dissect_atm_truncated, i32 noundef %21)
  store ptr %22, ptr @atm_handle, align 8
  %23 = load i32, ptr @proto_atm, align 4
  %24 = call ptr @register_dissector(ptr noundef @.str.172, ptr noundef @dissect_atm_pw_truncated, i32 noundef %23)
  %25 = load i32, ptr @proto_atm, align 4
  %26 = call ptr @register_dissector(ptr noundef @.str.173, ptr noundef @dissect_atm_untruncated, i32 noundef %25)
  store ptr %26, ptr @atm_untruncated_handle, align 8
  %27 = load i32, ptr @proto_atm, align 4
  %28 = call ptr @register_dissector(ptr noundef @.str.174, ptr noundef @dissect_atm_pw_untruncated, i32 noundef %27)
  %29 = load i32, ptr @proto_oamaal, align 4
  %30 = call ptr @register_dissector(ptr noundef @.str.175, ptr noundef @dissect_atm_oam_cell, i32 noundef %29)
  %31 = load i32, ptr @proto_oamaal, align 4
  %32 = call ptr @register_dissector(ptr noundef @.str.176, ptr noundef @dissect_atm_pw_oam_cell, i32 noundef %31)
  %33 = load i32, ptr @proto_atm, align 4
  %34 = call ptr @prefs_register_protocol(i32 noundef %33, ptr noundef null)
  store ptr %34, ptr %2, align 8
  %35 = load ptr, ptr %2, align 8
  call void @prefs_register_bool_preference(ptr noundef %35, ptr noundef @.str.177, ptr noundef @.str.178, ptr noundef @.str.179, ptr noundef @dissect_lanesscop)
  %36 = load ptr, ptr %2, align 8
  call void @prefs_register_obsolete_preference(ptr noundef %36, ptr noundef @.str.180)
  call void @register_decode_as(ptr noundef @proto_register_atm.atm_da)
  call void @llvm.lifetime.end.p0(i64 8, ptr %2) #9
  call void @llvm.lifetime.end.p0(i64 8, ptr %1) #9
  ret void
}