; Function Attrs: null_pointer_is_valid sspstrong uwtable
define hidden void @proto_register_atm() local_unnamed_addr #1 {
  %1 = tail call i32 @proto_register_protocol(ptr noundef nonnull @.str.146, ptr noundef nonnull @.str.147, ptr noundef nonnull @.str.144)
  store i32 %1, ptr @proto_atm, align 4
  %2 = tail call i32 @proto_register_protocol(ptr noundef nonnull @.str.148, ptr noundef nonnull @.str.149, ptr noundef nonnull @.str.150)
  store i32 %2, ptr @proto_aal1, align 4
  %3 = tail call i32 @proto_register_protocol(ptr noundef nonnull @.str.151, ptr noundef nonnull @.str.152, ptr noundef nonnull @.str.153)
  store i32 %3, ptr @proto_aal3_4, align 4
  %4 = tail call i32 @proto_register_protocol(ptr noundef nonnull @.str.154, ptr noundef nonnull @.str.155, ptr noundef nonnull @.str.156)
  store i32 %4, ptr @proto_oamaal, align 4
  %5 = load i32, ptr @proto_atm, align 4
  tail call void @proto_register_field_array(i32 noundef %5, ptr noundef nonnull @proto_register_atm.hf, i32 noundef 71)
  tail call void @proto_register_subtree_array(ptr noundef nonnull @proto_register_atm.ett, i32 noundef 10)
  %6 = load i32, ptr @proto_atm, align 4
  %7 = tail call ptr @expert_register_protocol(i32 noundef %6)
  tail call void @expert_register_field_array(ptr noundef %7, ptr noundef nonnull @proto_register_atm.ei, i32 noundef 1)
  %8 = tail call i32 @proto_register_protocol(ptr noundef nonnull @.str.157, ptr noundef nonnull @.str.157, ptr noundef nonnull @.str.158)
  store i32 %8, ptr @proto_ilmi, align 4
  %9 = tail call i32 @proto_register_protocol(ptr noundef nonnull @.str.159, ptr noundef nonnull @.str.160, ptr noundef nonnull @.str.161)
  store i32 %9, ptr @proto_atm_lane, align 4
  %10 = load i32, ptr @proto_atm, align 4
  %11 = tail call ptr @register_dissector_table(ptr noundef nonnull @.str.145, ptr noundef nonnull @.str.162, i32 noundef %10, i32 noundef 7, i32 noundef 1)
  store ptr %11, ptr @atm_type_aal2_table, align 8
  %12 = load i32, ptr @proto_atm, align 4
  %13 = tail call ptr @register_dissector_table(ptr noundef nonnull @.str.163, ptr noundef nonnull @.str.164, i32 noundef %12, i32 noundef 7, i32 noundef 1)
  store ptr %13, ptr @atm_type_aal5_table, align 8
  %14 = load i32, ptr @proto_atm, align 4
  %15 = tail call ptr @register_dissector_table(ptr noundef nonnull @.str.165, ptr noundef nonnull @.str.166, i32 noundef %14, i32 noundef 7, i32 noundef 1)
  store ptr %15, ptr @atm_cell_payload_vpi_vci_table, align 8
  %16 = load i32, ptr @proto_atm, align 4
  %17 = tail call ptr @register_dissector_table(ptr noundef nonnull @.str.167, ptr noundef nonnull @.str.168, i32 noundef %16, i32 noundef 7, i32 noundef 1)
  store ptr %17, ptr @atm_reassembled_vpi_vci_table, align 8
  tail call void @register_capture_dissector_table(ptr noundef nonnull @.str.163, ptr noundef nonnull @.str.169)
  tail call void @register_capture_dissector_table(ptr noundef nonnull @.str.170, ptr noundef nonnull @.str.159)
  %18 = load i32, ptr @proto_atm, align 4
  %19 = tail call ptr @register_dissector(ptr noundef nonnull @.str.171, ptr noundef nonnull @dissect_atm_truncated, i32 noundef %18)
  store ptr %19, ptr @atm_handle, align 8
  %20 = load i32, ptr @proto_atm, align 4
  %21 = tail call ptr @register_dissector(ptr noundef nonnull @.str.172, ptr noundef nonnull @dissect_atm_pw_truncated, i32 noundef %20)
  %22 = load i32, ptr @proto_atm, align 4
  %23 = tail call ptr @register_dissector(ptr noundef nonnull @.str.173, ptr noundef nonnull @dissect_atm_untruncated, i32 noundef %22)
  store ptr %23, ptr @atm_untruncated_handle, align 8
  %24 = load i32, ptr @proto_atm, align 4
  %25 = tail call ptr @register_dissector(ptr noundef nonnull @.str.174, ptr noundef nonnull @dissect_atm_pw_untruncated, i32 noundef %24)
  %26 = load i32, ptr @proto_oamaal, align 4
  %27 = tail call ptr @register_dissector(ptr noundef nonnull @.str.175, ptr noundef nonnull @dissect_atm_oam_cell, i32 noundef %26)
  %28 = load i32, ptr @proto_oamaal, align 4
  %29 = tail call ptr @register_dissector(ptr noundef nonnull @.str.176, ptr noundef nonnull @dissect_atm_pw_oam_cell, i32 noundef %28)
  %30 = load i32, ptr @proto_atm, align 4
  %31 = tail call ptr @prefs_register_protocol(i32 noundef %30, ptr noundef null)
  tail call void @prefs_register_bool_preference(ptr noundef %31, ptr noundef nonnull @.str.177, ptr noundef nonnull @.str.178, ptr noundef nonnull @.str.179, ptr noundef nonnull @dissect_lanesscop)
  tail call void @prefs_register_obsolete_preference(ptr noundef %31, ptr noundef nonnull @.str.180)
  tail call void @register_decode_as(ptr noundef nonnull @proto_register_atm.atm_da)
  ret void
}